; Function Attrs: nounwind uwtable
define noalias noundef nonnull ptr @l_runEST___rarg(ptr noundef %0) #1 {
  %2 = tail call ptr @lean_apply_2(ptr noundef %0, ptr noundef nonnull inttoptr (i64 1 to ptr), ptr noundef nonnull inttoptr (i64 1 to ptr)) #5
  %3 = ptrtoint ptr %2 to i64
  %4 = and i64 %3, 1
  %.not.i20 = icmp eq i64 %4, 0
  br i1 %.not.i20, label %8, label %5

5:                                                ; preds = %1
  %6 = lshr i64 %3, 1
  %7 = trunc i64 %6 to i32
  br label %lean_obj_tag.exit

8:                                                ; preds = %1
  %9 = getelementptr i8, ptr %2, i64 4
  %.val.i = load i32, ptr %9, align 4
  %10 = lshr i32 %.val.i, 24
  br label %lean_obj_tag.exit

lean_obj_tag.exit:                                ; preds = %5, %8
  %.0.i = phi i32 [ %7, %5 ], [ %10, %8 ]
  %11 = icmp eq i32 %.0.i, 0
  %12 = getelementptr inbounds nuw i8, ptr %2, i64 8
  %13 = load ptr, ptr %12, align 8, !tbaa !4
  %14 = ptrtoint ptr %13 to i64
  %15 = and i64 %14, 1
  %.not28 = icmp eq i64 %15, 0
  br i1 %11, label %16, label %33

16:                                               ; preds = %lean_obj_tag.exit
  br i1 %.not28, label %17, label %lean_inc.exit

17:                                               ; preds = %16
  %.val.i21 = load i32, ptr %13, align 4, !tbaa !8
  %18 = icmp sgt i32 %.val.i21, 0
  br i1 %18, label %19, label %21, !prof !13

19:                                               ; preds = %17
  %20 = add nuw i32 %.val.i21, 1
  store i32 %20, ptr %13, align 4, !tbaa !8
  br label %lean_inc.exit

21:                                               ; preds = %17
  %.not.i22 = icmp eq i32 %.val.i21, 0
  br i1 %.not.i22, label %lean_inc.exit, label %22

22:                                               ; preds = %21
  tail call void @lean_inc_ref_cold(ptr noundef nonnull %13) #5
  br label %lean_inc.exit

lean_inc.exit:                                    ; preds = %22, %21, %19, %16
  br i1 %.not.i20, label %23, label %lean_dec.exit16

23:                                               ; preds = %lean_inc.exit
  %24 = load i32, ptr %2, align 4, !tbaa !8
  %25 = icmp sgt i32 %24, 1
  br i1 %25, label %26, label %28, !prof !13

26:                                               ; preds = %23
  %27 = add nsw i32 %24, -1
  store i32 %27, ptr %2, align 4, !tbaa !8
  br label %lean_dec.exit16

28:                                               ; preds = %23
  %.not.i = icmp eq i32 %24, 0
  br i1 %.not.i, label %lean_dec.exit16, label %29

29:                                               ; preds = %28
  tail call void @lean_dec_ref_cold(ptr noundef nonnull %2) #5
  br label %lean_dec.exit16

lean_dec.exit16:                                  ; preds = %29, %28, %26, %lean_inc.exit
  tail call void @lean_inc_heartbeat() #5
  %30 = tail call noalias ptr @mi_malloc_small(i64 noundef 16) #5
  %31 = icmp eq ptr %30, null
  br i1 %31, label %32, label %lean_alloc_ctor.exit

32:                                               ; preds = %lean_dec.exit16
  tail call void @lean_internal_panic_out_of_memory() #6
  unreachable

33:                                               ; preds = %lean_obj_tag.exit
  br i1 %.not28, label %34, label %lean_inc.exit17

34:                                               ; preds = %33
  %.val.i23 = load i32, ptr %13, align 4, !tbaa !8
  %35 = icmp sgt i32 %.val.i23, 0
  br i1 %35, label %36, label %38, !prof !13

36:                                               ; preds = %34
  %37 = add nuw i32 %.val.i23, 1
  store i32 %37, ptr %13, align 4, !tbaa !8
  br label %lean_inc.exit17

38:                                               ; preds = %34
  %.not.i24 = icmp eq i32 %.val.i23, 0
  br i1 %.not.i24, label %lean_inc.exit17, label %39

39:                                               ; preds = %38
  tail call void @lean_inc_ref_cold(ptr noundef nonnull %13) #5
  br label %lean_inc.exit17

lean_inc.exit17:                                  ; preds = %39, %38, %36, %33
  br i1 %.not.i20, label %40, label %lean_dec.exit

40:                                               ; preds = %lean_inc.exit17
  %41 = load i32, ptr %2, align 4, !tbaa !8
  %42 = icmp sgt i32 %41, 1
  br i1 %42, label %43, label %45, !prof !13

43:                                               ; preds = %40
  %44 = add nsw i32 %41, -1
  store i32 %44, ptr %2, align 4, !tbaa !8
  br label %lean_dec.exit

45:                                               ; preds = %40
  %.not.i18 = icmp eq i32 %41, 0
  br i1 %.not.i18, label %lean_dec.exit, label %46

46:                                               ; preds = %45
  tail call void @lean_dec_ref_cold(ptr noundef nonnull %2) #5
  br label %lean_dec.exit

lean_dec.exit:                                    ; preds = %46, %45, %43, %lean_inc.exit17
  tail call void @lean_inc_heartbeat() #5
  %47 = tail call noalias ptr @mi_malloc_small(i64 noundef 16) #5
  %48 = icmp eq ptr %47, null
  br i1 %48, label %49, label %lean_alloc_ctor.exit

49:                                               ; preds = %lean_dec.exit
  tail call void @lean_internal_panic_out_of_memory() #6
  unreachable

lean_alloc_ctor.exit:                             ; preds = %lean_dec.exit, %lean_dec.exit16
  %.sink33 = phi ptr [ %30, %lean_dec.exit16 ], [ %47, %lean_dec.exit ]
  %.sink = phi i32 [ 16842768, %lean_dec.exit16 ], [ 65552, %lean_dec.exit ]
  %50 = getelementptr inbounds nuw i8, ptr %.sink33, i64 4
  store i32 1, ptr %.sink33, align 4, !tbaa !8
  store i32 %.sink, ptr %50, align 4
  %51 = getelementptr inbounds nuw i8, ptr %.sink33, i64 8
  store ptr %13, ptr %51, align 8, !tbaa !4
  ret ptr %.sink33
}